; Function Attrs: mustprogress nofree norecurse nosync nounwind willreturn memory(read, inaccessiblemem: none) uwtable
define hidden noundef zeroext i1 @_ZN40TemplateAssertionPredicateExpressionNode31is_template_assertion_predicateEP4Node(ptr nocapture noundef readonly %0) local_unnamed_addr #1 align 2 {
  %2 = getelementptr inbounds i8, ptr %0, i64 44
  %3 = load i32, ptr %2, align 4
  %4 = and i32 %3, 31
  %5 = icmp eq i32 %4, 21
  br i1 %5, label %6, label %15

6:                                                ; preds = %1
  %7 = getelementptr inbounds i8, ptr %0, i64 8
  %8 = load ptr, ptr %7, align 8
  %9 = getelementptr inbounds i8, ptr %8, i64 8
  %10 = load ptr, ptr %9, align 8
  %11 = getelementptr inbounds i8, ptr %10, i64 44
  %12 = load i32, ptr %11, align 4
  %13 = and i32 %12, 262143
  %14 = icmp eq i32 %13, 131072
  br label %15

15:                                               ; preds = %6, %1
  %16 = phi i1 [ false, %1 ], [ %14, %6 ]
  ret i1 %16
}